
led_on_elf:     file format elf32-littlearm


Disassembly of section .text:

00000000 <_start>:
   0:	e3a00453 	mov	r0, #1392508928	; 0x53000000
   4:	e3a01000 	mov	r1, #0
   8:	e5801000 	str	r1, [r0]
   c:	e3a0da01 	mov	sp, #4096	; 0x1000
  10:	eb000000 	bl	18 <main>

00000014 <halt_loop>:
  14:	eafffffe 	b	14 <halt_loop>

00000018 <main>:
  18:	e52db004 	push	{fp}		; (str fp, [sp, #-4]!)
  1c:	e28db000 	add	fp, sp, #0
  20:	e59f305c 	ldr	r3, [pc, #92]	; 84 <main+0x6c>
  24:	e59f2058 	ldr	r2, [pc, #88]	; 84 <main+0x6c>
  28:	e5922000 	ldr	r2, [r2]
  2c:	e3c22bff 	bic	r2, r2, #261120	; 0x3fc00
  30:	e5832000 	str	r2, [r3]
  34:	e59f3048 	ldr	r3, [pc, #72]	; 84 <main+0x6c>
  38:	e59f2044 	ldr	r2, [pc, #68]	; 84 <main+0x6c>
  3c:	e5922000 	ldr	r2, [r2]
  40:	e3822b55 	orr	r2, r2, #87040	; 0x15400
  44:	e5832000 	str	r2, [r3]
  48:	e59f3038 	ldr	r3, [pc, #56]	; 88 <main+0x70>
  4c:	e59f2034 	ldr	r2, [pc, #52]	; 88 <main+0x70>
  50:	e5922000 	ldr	r2, [r2]
  54:	e3c22e1e 	bic	r2, r2, #480	; 0x1e0
  58:	e5832000 	str	r2, [r3]
  5c:	e59f3024 	ldr	r3, [pc, #36]	; 88 <main+0x70>
  60:	e59f2020 	ldr	r2, [pc, #32]	; 88 <main+0x70>
  64:	e5922000 	ldr	r2, [r2]
  68:	e38220a0 	orr	r2, r2, #160	; 0xa0
  6c:	e5832000 	str	r2, [r3]
  70:	e3a03000 	mov	r3, #0
  74:	e1a00003 	mov	r0, r3
  78:	e28bd000 	add	sp, fp, #0
  7c:	e8bd0800 	pop	{fp}
  80:	e12fff1e 	bx	lr
  84:	56000010 	undefined instruction 0x56000010
  88:	56000014 	undefined instruction 0x56000014
